target datalayout = "e-m:e-p270:32:32-p271:32:32-p272:64:64-i64:64-i128:128-f80:128-n8:16:32:64-S128"
target triple = "x86_64-pc-linux-gnu"

; Function Attrs: inlinehint mustprogress nounwind uwtable
define linkonce_odr noundef zeroext i1 @_ZN4base16IsValidCodepointEj(i32 noundef %0) #4 comdat {
  %2 = alloca i32, align 4
  store i32 %0, ptr %2, align 4, !tbaa !25
  %3 = load i32, ptr %2, align 4, !tbaa !25
  %4 = icmp ult i32 %3, 55296
  br i1 %4, label %13, label %5

5:                                                ; preds = %1
  %6 = load i32, ptr %2, align 4, !tbaa !25
  %7 = icmp uge i32 %6, 57344
  br i1 %7, label %8, label %11

8:                                                ; preds = %5
  %9 = load i32, ptr %2, align 4, !tbaa !25
  %10 = icmp ule i32 %9, 1114111
  br label %11

11:                                               ; preds = %8, %5
  %12 = phi i1 [ false, %5 ], [ %10, %8 ]
  br label %13

13:                                               ; preds = %11, %1
  %14 = phi i1 [ true, %1 ], [ %12, %11 ]
  ret i1 %14
}

; Function Attrs: mustprogress uwtable
define noundef zeroext i1 @_ZN4base20ReadUnicodeCharacterEPKciPiPj(ptr noundef %0, i32 noundef %1, ptr noundef %2, ptr noundef %3) #0 {
  %5 = alloca ptr, align 8
  %6 = alloca i32, align 4
  %7 = alloca ptr, align 8
  %8 = alloca ptr, align 8
  %9 = alloca i32, align 4
  store ptr %0, ptr %5, align 8, !tbaa !18
  store i32 %1, ptr %6, align 4, !tbaa !25
  store ptr %2, ptr %7, align 8, !tbaa !27
  store ptr %3, ptr %8, align 8, !tbaa !27
  call void @llvm.lifetime.start.p0(i64 4, ptr %9) #6
  %10 = load ptr, ptr %5, align 8, !tbaa !18
  %11 = load ptr, ptr %7, align 8, !tbaa !27
  %12 = load i32, ptr %11, align 4, !tbaa !25
  %13 = add nsw i32 %12, 1
  store i32 %13, ptr %11, align 4, !tbaa !25
  %14 = sext i32 %12 to i64
  %15 = getelementptr inbounds i8, ptr %10, i64 %14
  %16 = load i8, ptr %15, align 1, !tbaa !22
  %17 = sext i8 %16 to i32
  store i32 %17, ptr %9, align 4, !tbaa !25
  %18 = load i32, ptr %9, align 4, !tbaa !25
  %19 = trunc i32 %18 to i8
  %20 = zext i8 %19 to i32
  %21 = icmp sge i32 %20, 128
  br i1 %21, label %22, label %36

22:                                               ; preds = %4
  %23 = load i32, ptr %9, align 4, !tbaa !25
  %24 = sub nsw i32 %23, 192
  %25 = trunc i32 %24 to i8
  %26 = zext i8 %25 to i32
  %27 = icmp slt i32 %26, 62
  br i1 %27, label %28, label %34

28:                                               ; preds = %22
  %29 = load ptr, ptr %5, align 8, !tbaa !18
  %30 = load ptr, ptr %7, align 8, !tbaa !27
  %31 = load i32, ptr %6, align 4, !tbaa !25
  %32 = load i32, ptr %9, align 4, !tbaa !25
  %33 = call noundef i32 @_ZN8base_icu21utf8_nextCharSafeBodyEPKhPiiia(ptr noundef %29, ptr noundef %30, i32 noundef %31, i32 noundef %32, i8 noundef signext -1)
  store i32 %33, ptr %9, align 4, !tbaa !25
  br label %35

34:                                               ; preds = %22
  store i32 -1, ptr %9, align 4, !tbaa !25
  br label %35

35:                                               ; preds = %34, %28
  br label %36

36:                                               ; preds = %35, %4
  %37 = load i32, ptr %9, align 4, !tbaa !25
  %38 = load ptr, ptr %8, align 8, !tbaa !27
  store i32 %37, ptr %38, align 4, !tbaa !25
  %39 = load ptr, ptr %7, align 8, !tbaa !27
  %40 = load i32, ptr %39, align 4, !tbaa !25
  %41 = add nsw i32 %40, -1
  store i32 %41, ptr %39, align 4, !tbaa !25
  %42 = load i32, ptr %9, align 4, !tbaa !25
  %43 = call noundef zeroext i1 @_ZN4base16IsValidCodepointEj(i32 noundef %42)
  call void @llvm.lifetime.end.p0(i64 4, ptr %9) #6
  ret i1 %43
}