; Function Attrs: mustprogress uwtable
define noundef zeroext i1 @_ZN4base20ReadUnicodeCharacterEPKciPiPj(ptr noundef %0, i32 noundef %1, ptr noundef %2, ptr noundef writeonly captures(none) initializes((0, 4)) %3) local_unnamed_addr #0 {
  %5 = load i32, ptr %2, align 4, !tbaa !27
  %6 = add nsw i32 %5, 1
  store i32 %6, ptr %2, align 4, !tbaa !27
  %7 = sext i32 %5 to i64
  %8 = getelementptr inbounds i8, ptr %0, i64 %7
  %9 = load i8, ptr %8, align 1, !tbaa !12
  %10 = sext i8 %9 to i32
  %11 = icmp slt i8 %9, 0
  br i1 %11, label %12, label %17

12:                                               ; preds = %4
  %13 = add nsw i8 %9, 64
  %14 = icmp ult i8 %13, 62
  br i1 %14, label %15, label %17

15:                                               ; preds = %12
  %16 = tail call noundef i32 @_ZN8base_icu21utf8_nextCharSafeBodyEPKhPiiia(ptr noundef nonnull %0, ptr noundef nonnull %2, i32 noundef %1, i32 noundef %10, i8 noundef signext -1)
  br label %17

17:                                               ; preds = %12, %15, %4
  %.0 = phi i32 [ %16, %15 ], [ %10, %4 ], [ -1, %12 ]
  store i32 %.0, ptr %3, align 4, !tbaa !27
  %18 = load i32, ptr %2, align 4, !tbaa !27
  %19 = add nsw i32 %18, -1
  store i32 %19, ptr %2, align 4, !tbaa !27
  %20 = icmp ult i32 %.0, 55296
  %21 = add i32 %.0, -57344
  %22 = icmp ult i32 %21, 1056768
  %23 = or i1 %20, %22
  ret i1 %23
}